target datalayout = "e-m:e-p270:32:32-p271:32:32-p272:64:64-i64:64-i128:128-f80:128-n8:16:32:64-S128"
target triple = "x86_64-pc-linux-gnu"

%"class.llvm::BPFunctionNode" = type { i64, %"class.llvm::SmallVector", %"class.std::optional", i64 }
%"class.llvm::SmallVector" = type { %"class.llvm::SmallVectorImpl", %"struct.llvm::SmallVectorStorage" }
%"class.llvm::SmallVectorImpl" = type { %"class.llvm::SmallVectorTemplateBase" }
%"class.llvm::SmallVectorTemplateBase" = type { %"class.llvm::SmallVectorTemplateCommon" }
%"class.llvm::SmallVectorTemplateCommon" = type { %"class.llvm::SmallVectorBase" }
%"class.llvm::SmallVectorBase" = type { ptr, i32, i32 }
%"struct.llvm::SmallVectorStorage" = type { [16 x i8] }
%"class.std::optional" = type { %"struct.std::_Optional_base" }
%"struct.std::_Optional_base" = type { %"struct.std::_Optional_payload" }
%"struct.std::_Optional_payload" = type { %"struct.std::_Optional_payload_base.base", [3 x i8] }
%"struct.std::_Optional_payload_base.base" = type <{ %"union.std::_Optional_payload_base<unsigned int>::_Storage", i8 }>
%"union.std::_Optional_payload_base<unsigned int>::_Storage" = type { i32 }
%"struct.llvm::BalancedPartitioning::UtilitySignature" = type <{ i32, i32, float, float, i8, [3 x i8] }>

; Function Attrs: mustprogress nounwind uwtable
define linkonce_odr hidden noundef ptr @_ZNK4llvm25SmallVectorTemplateCommonINS_20BalancedPartitioning16UtilitySignatureEvE5beginEv(ptr noundef nonnull align 8 dereferenceable(16) %0) #0 comdat align 2 {
  %2 = alloca ptr, align 8
  store ptr %0, ptr %2, align 8
  %3 = load ptr, ptr %2, align 8
  %4 = getelementptr inbounds nuw %"class.llvm::SmallVectorBase", ptr %3, i32 0, i32 0
  %5 = load ptr, ptr %4, align 8
  ret ptr %5
}

; Function Attrs: mustprogress nounwind uwtable
define linkonce_odr hidden noundef nonnull align 4 dereferenceable(17) ptr @_ZNK4llvm25SmallVectorTemplateCommonINS_20BalancedPartitioning16UtilitySignatureEvEixEm(ptr noundef nonnull align 8 dereferenceable(16) %0, i64 noundef %1) #0 comdat align 2 {
  %3 = alloca ptr, align 8
  %4 = alloca i64, align 8
  store ptr %0, ptr %3, align 8
  store i64 %1, ptr %4, align 8
  %5 = load ptr, ptr %3, align 8
  %6 = call noundef ptr @_ZNK4llvm25SmallVectorTemplateCommonINS_20BalancedPartitioning16UtilitySignatureEvE5beginEv(ptr noundef nonnull align 8 dereferenceable(16) %5)
  %7 = load i64, ptr %4, align 8
  %8 = getelementptr inbounds %"struct.llvm::BalancedPartitioning::UtilitySignature", ptr %6, i64 %7
  ret ptr %8
}

; Function Attrs: mustprogress nounwind uwtable
define linkonce_odr hidden noundef ptr @_ZNK4llvm25SmallVectorTemplateCommonIjvE3endEv(ptr noundef nonnull align 8 dereferenceable(16) %0) #0 comdat align 2 {
  %2 = alloca ptr, align 8
  store ptr %0, ptr %2, align 8
  %3 = load ptr, ptr %2, align 8
  %4 = call noundef ptr @_ZNK4llvm25SmallVectorTemplateCommonIjvE5beginEv(ptr noundef nonnull align 8 dereferenceable(16) %3)
  %5 = call noundef i64 @_ZNK4llvm15SmallVectorBaseIjE4sizeEv(ptr noundef nonnull align 8 dereferenceable(16) %3)
  %6 = getelementptr inbounds i32, ptr %4, i64 %5
  ret ptr %6
}

; Function Attrs: mustprogress nounwind uwtable
define linkonce_odr hidden noundef ptr @_ZNK4llvm25SmallVectorTemplateCommonIjvE5beginEv(ptr noundef nonnull align 8 dereferenceable(16) %0) #0 comdat align 2 {
  %2 = alloca ptr, align 8
  store ptr %0, ptr %2, align 8
  %3 = load ptr, ptr %2, align 8
  %4 = getelementptr inbounds nuw %"class.llvm::SmallVectorBase", ptr %3, i32 0, i32 0
  %5 = load ptr, ptr %4, align 8
  ret ptr %5
}

; Function Attrs: mustprogress nounwind uwtable
define dso_local noundef float @_ZN4llvm20BalancedPartitioning8moveGainERKNS_14BPFunctionNodeEbRKNS_11SmallVectorINS0_16UtilitySignatureELj4EEE(ptr noundef nonnull align 8 dereferenceable(56) %0, i1 noundef zeroext %1, ptr noundef nonnull align 8 dereferenceable(96) %2) #0 align 2 {
  %4 = alloca ptr, align 8
  %5 = alloca i8, align 1
  %6 = alloca ptr, align 8
  %7 = alloca float, align 4
  %8 = alloca ptr, align 8
  %9 = alloca ptr, align 8
  %10 = alloca ptr, align 8
  %11 = alloca ptr, align 8
  store ptr %0, ptr %4, align 8
  %12 = zext i1 %1 to i8
  store i8 %12, ptr %5, align 1
  store ptr %2, ptr %6, align 8
  store float 0.000000e+00, ptr %7, align 4
  %13 = load ptr, ptr %4, align 8
  %14 = getelementptr inbounds nuw %"class.llvm::BPFunctionNode", ptr %13, i32 0, i32 1
  store ptr %14, ptr %8, align 8
  %15 = load ptr, ptr %8, align 8
  %16 = call noundef ptr @_ZNK4llvm25SmallVectorTemplateCommonIjvE5beginEv(ptr noundef nonnull align 8 dereferenceable(16) %15)
  store ptr %16, ptr %9, align 8
  %17 = load ptr, ptr %8, align 8
  %18 = call noundef ptr @_ZNK4llvm25SmallVectorTemplateCommonIjvE3endEv(ptr noundef nonnull align 8 dereferenceable(16) %17)
  store ptr %18, ptr %10, align 8
  br label %19

19:                                               ; preds = %47, %3
  %20 = load ptr, ptr %9, align 8
  %21 = load ptr, ptr %10, align 8
  %22 = icmp ne ptr %20, %21
  br i1 %22, label %23, label %50

23:                                               ; preds = %19
  %24 = load ptr, ptr %9, align 8
  store ptr %24, ptr %11, align 8
  %25 = load i8, ptr %5, align 1
  %26 = trunc i8 %25 to i1
  br i1 %26, label %27, label %35

27:                                               ; preds = %23
  %28 = load ptr, ptr %6, align 8
  %29 = load ptr, ptr %11, align 8
  %30 = load i32, ptr %29, align 4
  %31 = zext i32 %30 to i64
  %32 = call noundef nonnull align 4 dereferenceable(17) ptr @_ZNK4llvm25SmallVectorTemplateCommonINS_20BalancedPartitioning16UtilitySignatureEvEixEm(ptr noundef nonnull align 8 dereferenceable(16) %28, i64 noundef %31)
  %33 = getelementptr inbounds nuw %"struct.llvm::BalancedPartitioning::UtilitySignature", ptr %32, i32 0, i32 2
  %34 = load float, ptr %33, align 4
  br label %43

35:                                               ; preds = %23
  %36 = load ptr, ptr %6, align 8
  %37 = load ptr, ptr %11, align 8
  %38 = load i32, ptr %37, align 4
  %39 = zext i32 %38 to i64
  %40 = call noundef nonnull align 4 dereferenceable(17) ptr @_ZNK4llvm25SmallVectorTemplateCommonINS_20BalancedPartitioning16UtilitySignatureEvEixEm(ptr noundef nonnull align 8 dereferenceable(16) %36, i64 noundef %39)
  %41 = getelementptr inbounds nuw %"struct.llvm::BalancedPartitioning::UtilitySignature", ptr %40, i32 0, i32 3
  %42 = load float, ptr %41, align 4
  br label %43

43:                                               ; preds = %35, %27
  %44 = phi float [ %34, %27 ], [ %42, %35 ]
  %45 = load float, ptr %7, align 4
  %46 = fadd float %45, %44
  store float %46, ptr %7, align 4
  br label %47

47:                                               ; preds = %43
  %48 = load ptr, ptr %9, align 8
  %49 = getelementptr inbounds i32, ptr %48, i32 1
  store ptr %49, ptr %9, align 8
  br label %19

50:                                               ; preds = %19
  %51 = load float, ptr %7, align 4
  ret float %51
}