; Function Attrs: mustprogress nounwind uwtable
define dso_local noundef float @_ZN4llvm20BalancedPartitioning8moveGainERKNS_14BPFunctionNodeEbRKNS_11SmallVectorINS0_16UtilitySignatureELj4EEE(ptr noundef nonnull align 8 dereferenceable(56) %0, i1 noundef zeroext %1, ptr noundef nonnull readonly align 8 captures(none) dereferenceable(96) %2) local_unnamed_addr #0 align 2 {
  %4 = getelementptr inbounds nuw i8, ptr %0, i64 8
  %5 = load ptr, ptr %4, align 8
  %6 = tail call noundef i64 @_ZNK4llvm15SmallVectorBaseIjE4sizeEv(ptr noundef nonnull align 8 dereferenceable(16) %4) #22
  %7 = getelementptr inbounds i32, ptr %5, i64 %6
  %.not14 = icmp eq i64 %6, 0
  br i1 %.not14, label %._crit_edge, label %.lr.ph

.lr.ph:                                           ; preds = %3
  %8 = load ptr, ptr %2, align 8
  br i1 %1, label %.lr.ph.split.us, label %.lr.ph.split

.lr.ph.split.us:                                  ; preds = %.lr.ph, %.lr.ph.split.us
  %.016.us = phi float [ %13, %.lr.ph.split.us ], [ 0.000000e+00, %.lr.ph ]
  %.01315.us = phi ptr [ %14, %.lr.ph.split.us ], [ %5, %.lr.ph ]
  %9 = load i32, ptr %.01315.us, align 4
  %10 = zext i32 %9 to i64
  %11 = getelementptr inbounds nuw %"struct.llvm::BalancedPartitioning::UtilitySignature", ptr %8, i64 %10, i32 2
  %12 = load float, ptr %11, align 4
  %13 = fadd float %.016.us, %12
  %14 = getelementptr inbounds nuw i8, ptr %.01315.us, i64 4
  %.not.us = icmp eq ptr %14, %7
  br i1 %.not.us, label %._crit_edge, label %.lr.ph.split.us

.lr.ph.split:                                     ; preds = %.lr.ph, %.lr.ph.split
  %.016 = phi float [ %19, %.lr.ph.split ], [ 0.000000e+00, %.lr.ph ]
  %.01315 = phi ptr [ %20, %.lr.ph.split ], [ %5, %.lr.ph ]
  %15 = load i32, ptr %.01315, align 4
  %16 = zext i32 %15 to i64
  %17 = getelementptr inbounds nuw %"struct.llvm::BalancedPartitioning::UtilitySignature", ptr %8, i64 %16, i32 3
  %18 = load float, ptr %17, align 4
  %19 = fadd float %.016, %18
  %20 = getelementptr inbounds nuw i8, ptr %.01315, i64 4
  %.not = icmp eq ptr %20, %7
  br i1 %.not, label %._crit_edge, label %.lr.ph.split

._crit_edge:                                      ; preds = %.lr.ph.split, %.lr.ph.split.us, %3
  %.0.lcssa = phi float [ 0.000000e+00, %3 ], [ %13, %.lr.ph.split.us ], [ %19, %.lr.ph.split ]
  ret float %.0.lcssa
}